; Function Attrs: nounwind uwtable
define dso_local ptr @oid_array_to_list(i64 noundef %0) local_unnamed_addr #0 {
  %2 = alloca ptr, align 8
  %3 = alloca i32, align 4
  %4 = inttoptr i64 %0 to ptr
  %5 = tail call ptr @pg_detoast_datum(ptr noundef %4) #7
  call void @llvm.lifetime.start.p0(i64 8, ptr nonnull %2) #7
  call void @llvm.lifetime.start.p0(i64 4, ptr nonnull %3) #7
  call void @deconstruct_array_builtin(ptr noundef %5, i32 noundef 26, ptr noundef nonnull %2, ptr noundef null, ptr noundef nonnull %3) #7
  %6 = load i32, ptr %3, align 4
  %7 = icmp sgt i32 %6, 0
  br i1 %7, label %.lr.ph, label %._crit_edge

.lr.ph:                                           ; preds = %1, %.lr.ph
  %indvars.iv = phi i64 [ %indvars.iv.next, %.lr.ph ], [ 0, %1 ]
  %.08 = phi ptr [ %12, %.lr.ph ], [ null, %1 ]
  %8 = load ptr, ptr %2, align 8
  %9 = getelementptr inbounds nuw i64, ptr %8, i64 %indvars.iv
  %10 = load i64, ptr %9, align 8
  %11 = trunc i64 %10 to i32
  %12 = call ptr @lappend_oid(ptr noundef %.08, i32 noundef %11) #7
  %indvars.iv.next = add nuw nsw i64 %indvars.iv, 1
  %13 = load i32, ptr %3, align 4
  %14 = sext i32 %13 to i64
  %15 = icmp slt i64 %indvars.iv.next, %14
  br i1 %15, label %.lr.ph, label %._crit_edge, !llvm.loop !14

._crit_edge:                                      ; preds = %.lr.ph, %1
  %.0.lcssa = phi ptr [ null, %1 ], [ %12, %.lr.ph ]
  call void @llvm.lifetime.end.p0(i64 4, ptr nonnull %3) #7
  call void @llvm.lifetime.end.p0(i64 8, ptr nonnull %2) #7
  ret ptr %.0.lcssa
}